target datalayout = "e-m:e-p270:32:32-p271:32:32-p272:64:64-i64:64-i128:128-f80:128-n8:16:32:64-S128"
target triple = "x86_64-pc-linux-gnu"

; Function Attrs: inlinehint mustprogress nounwind uwtable
define linkonce_odr noundef float @_ZSt3absf(float noundef %0) #3 comdat {
  %2 = alloca float, align 4
  store float %0, ptr %2, align 4, !tbaa !14
  %3 = load float, ptr %2, align 4, !tbaa !14
  %4 = call float @llvm.fabs.f32(float %3)
  ret float %4
}

; Function Attrs: inlinehint mustprogress uwtable
define internal noundef float @_ZN2cv3hal12cpu_baseline12_GLOBAL__N_18atan_f32Eff(float noundef %0, float noundef %1) #6 {
  %3 = alloca float, align 4
  %4 = alloca float, align 4
  %5 = alloca float, align 4
  %6 = alloca float, align 4
  %7 = alloca float, align 4
  %8 = alloca float, align 4
  %9 = alloca float, align 4
  store float %0, ptr %3, align 4, !tbaa !14
  store float %1, ptr %4, align 4, !tbaa !14
  call void @llvm.lifetime.start.p0(i64 4, ptr %5) #14
  %10 = load float, ptr %4, align 4, !tbaa !14
  %11 = call noundef float @_ZSt3absf(float noundef %10)
  store float %11, ptr %5, align 4, !tbaa !14
  call void @llvm.lifetime.start.p0(i64 4, ptr %6) #14
  %12 = load float, ptr %3, align 4, !tbaa !14
  %13 = call noundef float @_ZSt3absf(float noundef %12)
  store float %13, ptr %6, align 4, !tbaa !14
  call void @llvm.lifetime.start.p0(i64 4, ptr %7) #14
  call void @llvm.lifetime.start.p0(i64 4, ptr %8) #14
  call void @llvm.lifetime.start.p0(i64 4, ptr %9) #14
  %14 = load float, ptr %5, align 4, !tbaa !14
  %15 = load float, ptr %6, align 4, !tbaa !14
  %16 = fcmp oge float %14, %15
  br i1 %16, label %17, label %33

17:                                               ; preds = %2
  %18 = load float, ptr %6, align 4, !tbaa !14
  %19 = load float, ptr %5, align 4, !tbaa !14
  %20 = fadd float %19, 0x3CB0000000000000
  %21 = fdiv float %18, %20
  store float %21, ptr %8, align 4, !tbaa !14
  %22 = load float, ptr %8, align 4, !tbaa !14
  %23 = load float, ptr %8, align 4, !tbaa !14
  %24 = fmul float %22, %23
  store float %24, ptr %9, align 4, !tbaa !14
  %25 = load float, ptr %9, align 4, !tbaa !14
  %26 = call float @llvm.fmuladd.f32(float 0xC004515B20000000, float %25, float 0x4021D3F7E0000000)
  %27 = load float, ptr %9, align 4, !tbaa !14
  %28 = call float @llvm.fmuladd.f32(float %26, float %27, float 0xC032AADDC0000000)
  %29 = load float, ptr %9, align 4, !tbaa !14
  %30 = call float @llvm.fmuladd.f32(float %28, float %29, float 0x404CA44DE0000000)
  %31 = load float, ptr %8, align 4, !tbaa !14
  %32 = fmul float %30, %31
  store float %32, ptr %7, align 4, !tbaa !14
  br label %50

33:                                               ; preds = %2
  %34 = load float, ptr %5, align 4, !tbaa !14
  %35 = load float, ptr %6, align 4, !tbaa !14
  %36 = fadd float %35, 0x3CB0000000000000
  %37 = fdiv float %34, %36
  store float %37, ptr %8, align 4, !tbaa !14
  %38 = load float, ptr %8, align 4, !tbaa !14
  %39 = load float, ptr %8, align 4, !tbaa !14
  %40 = fmul float %38, %39
  store float %40, ptr %9, align 4, !tbaa !14
  %41 = load float, ptr %9, align 4, !tbaa !14
  %42 = call float @llvm.fmuladd.f32(float 0xC004515B20000000, float %41, float 0x4021D3F7E0000000)
  %43 = load float, ptr %9, align 4, !tbaa !14
  %44 = call float @llvm.fmuladd.f32(float %42, float %43, float 0xC032AADDC0000000)
  %45 = load float, ptr %9, align 4, !tbaa !14
  %46 = call float @llvm.fmuladd.f32(float %44, float %45, float 0x404CA44DE0000000)
  %47 = load float, ptr %8, align 4, !tbaa !14
  %48 = fneg float %46
  %49 = call float @llvm.fmuladd.f32(float %48, float %47, float 9.000000e+01)
  store float %49, ptr %7, align 4, !tbaa !14
  br label %50

50:                                               ; preds = %33, %17
  %51 = load float, ptr %4, align 4, !tbaa !14
  %52 = fcmp olt float %51, 0.000000e+00
  br i1 %52, label %53, label %56

53:                                               ; preds = %50
  %54 = load float, ptr %7, align 4, !tbaa !14
  %55 = fsub float 1.800000e+02, %54
  store float %55, ptr %7, align 4, !tbaa !14
  br label %56

56:                                               ; preds = %53, %50
  %57 = load float, ptr %3, align 4, !tbaa !14
  %58 = fcmp olt float %57, 0.000000e+00
  br i1 %58, label %59, label %62

59:                                               ; preds = %56
  %60 = load float, ptr %7, align 4, !tbaa !14
  %61 = fsub float 3.600000e+02, %60
  store float %61, ptr %7, align 4, !tbaa !14
  br label %62

62:                                               ; preds = %59, %56
  %63 = load float, ptr %7, align 4, !tbaa !14
  call void @llvm.lifetime.end.p0(i64 4, ptr %9) #14
  call void @llvm.lifetime.end.p0(i64 4, ptr %8) #14
  call void @llvm.lifetime.end.p0(i64 4, ptr %7) #14
  call void @llvm.lifetime.end.p0(i64 4, ptr %6) #14
  call void @llvm.lifetime.end.p0(i64 4, ptr %5) #14
  ret float %63
}

; Function Attrs: mustprogress uwtable
define hidden noundef float @_ZN2cv3hal12cpu_baseline9fastAtan2Eff(float noundef %0, float noundef %1) #0 {
  %3 = alloca float, align 4
  %4 = alloca float, align 4
  store float %0, ptr %3, align 4, !tbaa !14
  store float %1, ptr %4, align 4, !tbaa !14
  %5 = load float, ptr %3, align 4, !tbaa !14
  %6 = load float, ptr %4, align 4, !tbaa !14
  %7 = call noundef float @_ZN2cv3hal12cpu_baseline12_GLOBAL__N_18atan_f32Eff(float noundef %5, float noundef %6)
  ret float %7
}