; Function Attrs: mustprogress nofree norecurse nosync nounwind willreturn memory(none) uwtable
define hidden noundef float @_ZN2cv3hal12cpu_baseline9fastAtan2Eff(float noundef %0, float noundef %1) local_unnamed_addr #7 {
  %3 = tail call noundef float @llvm.fabs.f32(float %1)
  %4 = tail call noundef float @llvm.fabs.f32(float %0)
  %5 = fcmp ult float %3, %4
  br i1 %5, label %14, label %6

6:                                                ; preds = %2
  %7 = fadd float %3, 0x3CB0000000000000
  %8 = fdiv float %4, %7
  %9 = fmul float %8, %8
  %10 = tail call float @llvm.fmuladd.f32(float %9, float 0xC004515B20000000, float 0x4021D3F7E0000000)
  %11 = tail call float @llvm.fmuladd.f32(float %10, float %9, float 0xC032AADDC0000000)
  %12 = tail call float @llvm.fmuladd.f32(float %11, float %9, float 0x404CA44DE0000000)
  %13 = fmul float %8, %12
  br label %_ZN2cv3hal12cpu_baseline12_GLOBAL__N_18atan_f32Eff.exit

14:                                               ; preds = %2
  %15 = fadd float %4, 0x3CB0000000000000
  %16 = fdiv float %3, %15
  %17 = fmul float %16, %16
  %18 = tail call float @llvm.fmuladd.f32(float %17, float 0xC004515B20000000, float 0x4021D3F7E0000000)
  %19 = tail call float @llvm.fmuladd.f32(float %18, float %17, float 0xC032AADDC0000000)
  %20 = tail call float @llvm.fmuladd.f32(float %19, float %17, float 0x404CA44DE0000000)
  %21 = fneg float %20
  %22 = tail call float @llvm.fmuladd.f32(float %21, float %16, float 9.000000e+01)
  br label %_ZN2cv3hal12cpu_baseline12_GLOBAL__N_18atan_f32Eff.exit

_ZN2cv3hal12cpu_baseline12_GLOBAL__N_18atan_f32Eff.exit: ; preds = %6, %14
  %.0.i = phi float [ %13, %6 ], [ %22, %14 ]
  %23 = fcmp olt float %1, 0.000000e+00
  %24 = fsub float 1.800000e+02, %.0.i
  %.1.i = select i1 %23, float %24, float %.0.i
  %25 = fcmp olt float %0, 0.000000e+00
  %26 = fsub float 3.600000e+02, %.1.i
  %.2.i = select i1 %25, float %26, float %.1.i
  ret float %.2.i
}